; Function Attrs: mustprogress nounwind uwtable
define noundef ptr @_ZNK6icu_7513FieldPosition5cloneEv(ptr nocapture noundef nonnull readonly align 8 dereferenceable(20) %this) local_unnamed_addr #1 align 2 personality ptr @__gxx_personality_v0 {
entry:
  %call = tail call noundef ptr @_ZN6icu_757UMemorynwEm(i64 noundef 24) #13
  %new.isnull = icmp eq ptr %call, null
  br i1 %new.isnull, label %new.cont, label %new.notnull

new.notnull:                                      ; preds = %entry
  store ptr getelementptr inbounds ({ [5 x ptr] }, ptr @_ZTVN6icu_7513FieldPositionE, i64 0, i32 0, i64 2), ptr %call, align 8
  %fField.i = getelementptr inbounds i8, ptr %call, i64 8
  %fField2.i = getelementptr inbounds i8, ptr %this, i64 8
  %0 = load i32, ptr %fField2.i, align 8
  store i32 %0, ptr %fField.i, align 8
  %fBeginIndex.i = getelementptr inbounds i8, ptr %call, i64 12
  %fBeginIndex3.i = getelementptr inbounds i8, ptr %this, i64 12
  %1 = load i32, ptr %fBeginIndex3.i, align 4
  store i32 %1, ptr %fBeginIndex.i, align 4
  %fEndIndex.i = getelementptr inbounds i8, ptr %call, i64 16
  %fEndIndex4.i = getelementptr inbounds i8, ptr %this, i64 16
  %2 = load i32, ptr %fEndIndex4.i, align 8
  store i32 %2, ptr %fEndIndex.i, align 8
  br label %new.cont

new.cont:                                         ; preds = %new.notnull, %entry
  ret ptr %call
}